; Function Attrs: mustprogress uwtable
define internal void @_ZL14Threshold_DemoiPv(i32 %0, ptr nocapture readnone %1) #4 personality ptr @__gxx_personality_v0 {
  %3 = alloca %"class.cv::_InputArray", align 8
  %4 = alloca %"class.cv::_OutputArray", align 8
  %5 = alloca %"class.std::__cxx11::basic_string", align 8
  %6 = alloca %"class.std::allocator", align 1
  %7 = alloca %"class.cv::_InputArray", align 8
  %8 = getelementptr inbounds i8, ptr %3, i64 16
  store i32 0, ptr %8, align 8
  %9 = getelementptr inbounds i8, ptr %3, i64 20
  store i32 0, ptr %9, align 4
  store i32 16842752, ptr %3, align 8
  %10 = getelementptr inbounds i8, ptr %3, i64 8
  store ptr @src_gray, ptr %10, align 8
  %11 = getelementptr inbounds i8, ptr %4, i64 8
  %12 = getelementptr inbounds i8, ptr %4, i64 16
  store i64 0, ptr %12, align 8
  store i32 33619968, ptr %4, align 8
  store ptr @dst, ptr %11, align 8
  %13 = load i32, ptr @threshold_value, align 4
  %14 = sitofp i32 %13 to double
  %15 = load i32, ptr @threshold_type, align 4
  %16 = call noundef double @_ZN2cv9thresholdERKNS_11_InputArrayERKNS_12_OutputArrayEddi(ptr noundef nonnull align 8 dereferenceable(24) %3, ptr noundef nonnull align 8 dereferenceable(24) %4, double noundef %14, double noundef 2.550000e+02, i32 noundef %15)
  %17 = load ptr, ptr @window_name, align 8
  call void @_ZNSaIcEC1Ev(ptr noundef nonnull align 1 dereferenceable(1) %6) #6
  invoke void @_ZNSt7__cxx1112basic_stringIcSt11char_traitsIcESaIcEEC1EPKcRKS3_(ptr noundef nonnull align 8 dereferenceable(32) %5, ptr noundef %17, ptr noundef nonnull align 1 dereferenceable(1) %6)
          to label %18 unwind label %23

18:                                               ; preds = %2
  %19 = getelementptr inbounds i8, ptr %7, i64 16
  store i32 0, ptr %19, align 8
  %20 = getelementptr inbounds i8, ptr %7, i64 20
  store i32 0, ptr %20, align 4
  store i32 16842752, ptr %7, align 8
  %21 = getelementptr inbounds i8, ptr %7, i64 8
  store ptr @dst, ptr %21, align 8
  invoke void @_ZN2cv6imshowERKNSt7__cxx1112basic_stringIcSt11char_traitsIcESaIcEEERKNS_11_InputArrayE(ptr noundef nonnull align 8 dereferenceable(32) %5, ptr noundef nonnull align 8 dereferenceable(24) %7)
          to label %22 unwind label %25

22:                                               ; preds = %18
  call void @_ZNSt7__cxx1112basic_stringIcSt11char_traitsIcESaIcEED1Ev(ptr noundef nonnull align 8 dereferenceable(32) %5) #6
  call void @_ZNSaIcED1Ev(ptr noundef nonnull align 1 dereferenceable(1) %6) #6
  ret void

23:                                               ; preds = %2
  %24 = landingpad { ptr, i32 }
          cleanup
  br label %27

25:                                               ; preds = %18
  %26 = landingpad { ptr, i32 }
          cleanup
  call void @_ZNSt7__cxx1112basic_stringIcSt11char_traitsIcESaIcEED1Ev(ptr noundef nonnull align 8 dereferenceable(32) %5) #6
  br label %27

27:                                               ; preds = %25, %23
  %.pn6.pn = phi { ptr, i32 } [ %26, %25 ], [ %24, %23 ]
  call void @_ZNSaIcED1Ev(ptr noundef nonnull align 1 dereferenceable(1) %6) #6
  resume { ptr, i32 } %.pn6.pn
}